; Function Attrs: nounwind uwtable
define ptr @l_Array_foldlMUnsafe_fold___at_Lean_Meta_LazyDiscrTree_PreDiscrTree_append___spec__2___rarg(ptr noundef readonly captures(none) %0, ptr noundef readonly captures(none) %1, i64 noundef %2, i64 noundef %3, ptr noundef %4) local_unnamed_addr #1 {
  %.not26 = icmp eq i64 %2, %3
  br i1 %.not26, label %._crit_edge, label %.lr.ph

.lr.ph:                                           ; preds = %5
  %6 = getelementptr inbounds nuw i8, ptr %1, i64 24
  br label %7

7:                                                ; preds = %.lr.ph, %18
  %.01528 = phi i64 [ %2, %.lr.ph ], [ %20, %18 ]
  %.01727 = phi ptr [ %4, %.lr.ph ], [ %19, %18 ]
  %8 = getelementptr inbounds nuw [0 x ptr], ptr %6, i64 0, i64 %.01528
  %9 = load ptr, ptr %8, align 8, !tbaa !4
  %10 = ptrtoint ptr %9 to i64
  %11 = and i64 %10, 1
  %.not.i = icmp eq i64 %11, 0
  br i1 %.not.i, label %12, label %18

12:                                               ; preds = %7
  %.val.i.i = load i32, ptr %9, align 4, !tbaa !8
  %13 = icmp sgt i32 %.val.i.i, 0
  br i1 %13, label %14, label %16, !prof !11

14:                                               ; preds = %12
  %15 = add nuw i32 %.val.i.i, 1
  store i32 %15, ptr %9, align 4, !tbaa !8
  br label %18

16:                                               ; preds = %12
  %.not.i.i = icmp eq i32 %.val.i.i, 0
  br i1 %.not.i.i, label %18, label %17

17:                                               ; preds = %16
  tail call void @lean_inc_ref_cold(ptr noundef nonnull %9) #6
  br label %18

18:                                               ; preds = %17, %16, %14, %7
  %19 = tail call ptr @l_Std_DHashMap_Internal_AssocList_foldlM___at_Lean_Meta_LazyDiscrTree_PreDiscrTree_append___spec__1___rarg(ptr noundef %0, ptr noundef %.01727, ptr noundef %9)
  %20 = add i64 %.01528, 1
  %.not = icmp eq i64 %20, %3
  br i1 %.not, label %._crit_edge, label %7

._crit_edge:                                      ; preds = %18, %5
  %.017.lcssa = phi ptr [ %4, %5 ], [ %19, %18 ]
  ret ptr %.017.lcssa
}